target datalayout = "e-m:e-p270:32:32-p271:32:32-p272:64:64-i64:64-i128:128-f80:128-n8:16:32:64-S128"
target triple = "x86_64-pc-linux-gnu"

@rb_unnamed_parameters.rbimpl_id = internal global i64 0, align 8
@.str.4 = private unnamed_addr constant [4 x i8] c"req\00", align 1
@rb_unnamed_parameters.rbimpl_id.5 = internal global i64 0, align 8
@.str.6 = private unnamed_addr constant [5 x i8] c"rest\00", align 1

; Function Attrs: inlinehint nounwind sspstrong willreturn memory(read) uwtable
define internal i64 @rb_intern_const(ptr noundef nonnull %0) #7 {
  %2 = alloca ptr, align 8
  %3 = alloca i64, align 8
  store ptr %0, ptr %2, align 8, !tbaa !73
  call void @llvm.lifetime.start.p0(i64 8, ptr %3) #25
  %4 = load ptr, ptr %2, align 8, !tbaa !73
  %5 = call i64 @strlen(ptr noundef %4) #28
  store i64 %5, ptr %3, align 8, !tbaa !7
  %6 = load ptr, ptr %2, align 8, !tbaa !73
  %7 = load i64, ptr %3, align 8, !tbaa !7
  %8 = call i64 @rb_intern2(ptr noundef %6, i64 noundef %7)
  call void @llvm.lifetime.end.p0(i64 8, ptr %3) #25
  ret i64 %8
}

; Function Attrs: inlinehint nounwind sspstrong memory(argmem: readwrite, inaccessiblemem: readwrite) uwtable
define internal i64 @rbimpl_intern_const(ptr noundef nonnull %0, ptr noundef nonnull %1) #4 {
  %3 = alloca ptr, align 8
  %4 = alloca ptr, align 8
  store ptr %0, ptr %3, align 8, !tbaa !35
  store ptr %1, ptr %4, align 8, !tbaa !73
  br label %5

5:                                                ; preds = %10, %2
  %6 = load ptr, ptr %3, align 8, !tbaa !35
  %7 = load i64, ptr %6, align 8, !tbaa !7
  %8 = icmp ne i64 %7, 0
  %9 = xor i1 %8, true
  br i1 %9, label %10, label %14

10:                                               ; preds = %5
  %11 = load ptr, ptr %4, align 8, !tbaa !73
  %12 = call i64 @rb_intern_const(ptr noundef %11) #28
  %13 = load ptr, ptr %3, align 8, !tbaa !35
  store i64 %12, ptr %13, align 8, !tbaa !7
  br label %5, !llvm.loop !75

14:                                               ; preds = %5
  %15 = load ptr, ptr %3, align 8, !tbaa !35
  %16 = load i64, ptr %15, align 8, !tbaa !7
  ret i64 %16
}

; Function Attrs: nounwind sspstrong uwtable
define hidden i64 @rb_unnamed_parameters(i32 noundef %0) #0 {
  %2 = alloca i32, align 4
  %3 = alloca i64, align 8
  %4 = alloca i64, align 8
  %5 = alloca i32, align 4
  %6 = alloca i64, align 8
  %7 = alloca i64, align 8
  store i32 %0, ptr %2, align 4, !tbaa !36
  call void @llvm.lifetime.start.p0(i64 8, ptr %3) #25
  call void @llvm.lifetime.start.p0(i64 8, ptr %4) #25
  %8 = load i32, ptr %2, align 4, !tbaa !36
  %9 = icmp slt i32 %8, 0
  br i1 %9, label %10, label %13

10:                                               ; preds = %1
  %11 = load i32, ptr %2, align 4, !tbaa !36
  %12 = sub i32 0, %11
  br label %15

13:                                               ; preds = %1
  %14 = load i32, ptr %2, align 4, !tbaa !36
  br label %15

15:                                               ; preds = %13, %10
  %16 = phi i32 [ %12, %10 ], [ %14, %13 ]
  %17 = sext i32 %16 to i64
  %18 = call i64 @rb_ary_new_capa(i64 noundef %17)
  store i64 %18, ptr %4, align 8, !tbaa !7
  call void @llvm.lifetime.start.p0(i64 4, ptr %5) #25
  %19 = load i32, ptr %2, align 4, !tbaa !36
  %20 = icmp slt i32 %19, 0
  br i1 %20, label %21, label %24

21:                                               ; preds = %15
  %22 = load i32, ptr %2, align 4, !tbaa !36
  %23 = xor i32 %22, -1
  br label %26

24:                                               ; preds = %15
  %25 = load i32, ptr %2, align 4, !tbaa !36
  br label %26

26:                                               ; preds = %24, %21
  %27 = phi i32 [ %23, %21 ], [ %25, %24 ]
  store i32 %27, ptr %5, align 4, !tbaa !36
  call void @llvm.lifetime.start.p0(i64 8, ptr %6) #25
  call void @llvm.lifetime.start.p0(i64 8, ptr %7) #25
  br label %28

28:                                               ; preds = %26
  %29 = call i64 @rbimpl_intern_const(ptr noundef @rb_unnamed_parameters.rbimpl_id, ptr noundef @.str.4) #26
  store i64 %29, ptr %6, align 8, !tbaa !7
  br label %30

30:                                               ; preds = %28
  br label %31

31:                                               ; preds = %30
  %32 = load i64, ptr %6, align 8, !tbaa !7
  %33 = call i64 @rb_id2sym(i64 noundef %32)
  %34 = call i64 (i64, ...) @rb_ary_new_from_args(i64 noundef 1, i64 noundef %33)
  store i64 %34, ptr %3, align 8, !tbaa !7
  %35 = load i64, ptr %3, align 8, !tbaa !7
  call void @rb_obj_freeze_inline(i64 noundef %35)
  br label %36

36:                                               ; preds = %43, %31
  %37 = load i32, ptr %5, align 4, !tbaa !36
  %38 = icmp ne i32 %37, 0
  br i1 %38, label %39, label %46

39:                                               ; preds = %36
  %40 = load i64, ptr %4, align 8, !tbaa !7
  %41 = load i64, ptr %3, align 8, !tbaa !7
  %42 = call i64 @rb_ary_push(i64 noundef %40, i64 noundef %41)
  br label %43

43:                                               ; preds = %39
  %44 = load i32, ptr %5, align 4, !tbaa !36
  %45 = add i32 %44, -1
  store i32 %45, ptr %5, align 4, !tbaa !36
  br label %36, !llvm.loop !71

46:                                               ; preds = %36
  %47 = load i32, ptr %2, align 4, !tbaa !36
  %48 = icmp slt i32 %47, 0
  br i1 %48, label %49, label %61

49:                                               ; preds = %46
  br label %50

50:                                               ; preds = %49
  %51 = call i64 @rbimpl_intern_const(ptr noundef @rb_unnamed_parameters.rbimpl_id.5, ptr noundef @.str.6) #26
  store i64 %51, ptr %7, align 8, !tbaa !7
  br label %52

52:                                               ; preds = %50
  br label %53

53:                                               ; preds = %52
  %54 = load i64, ptr %4, align 8, !tbaa !7
  %55 = load i32, ptr %2, align 4, !tbaa !36
  %56 = xor i32 %55, -1
  %57 = sext i32 %56 to i64
  %58 = load i64, ptr %7, align 8, !tbaa !7
  %59 = call i64 @rb_id2sym(i64 noundef %58)
  %60 = call i64 (i64, ...) @rb_ary_new_from_args(i64 noundef 1, i64 noundef %59)
  call void @rb_ary_store(i64 noundef %54, i64 noundef %57, i64 noundef %60)
  br label %61

61:                                               ; preds = %53, %46
  %62 = load i64, ptr %4, align 8, !tbaa !7
  call void @llvm.lifetime.end.p0(i64 8, ptr %7) #25
  call void @llvm.lifetime.end.p0(i64 8, ptr %6) #25
  call void @llvm.lifetime.end.p0(i64 4, ptr %5) #25
  call void @llvm.lifetime.end.p0(i64 8, ptr %4) #25
  call void @llvm.lifetime.end.p0(i64 8, ptr %3) #25
  ret i64 %62
}