; Function Attrs: nounwind sspstrong uwtable
define hidden i64 @rb_unnamed_parameters(i32 noundef %0) local_unnamed_addr #0 {
  %2 = icmp slt i32 %0, 0
  %3 = tail call i32 @llvm.abs.i32(i32 %0, i1 false)
  %4 = sext i32 %3 to i64
  %5 = tail call i64 @rb_ary_new_capa(i64 noundef %4) #21
  %6 = xor i32 %0, -1
  %7 = select i1 %2, i32 %6, i32 %0
  %.pr.i = load i64, ptr @rb_unnamed_parameters.rbimpl_id, align 8, !tbaa !36
  %.not4.i = icmp eq i64 %.pr.i, 0
  br i1 %.not4.i, label %.lr.ph.i, label %rbimpl_intern_const.exit

.lr.ph.i:                                         ; preds = %1, %.lr.ph.i
  %8 = tail call i64 @rb_intern2(ptr noundef nonnull @.str.4, i64 noundef 3) #21
  store i64 %8, ptr @rb_unnamed_parameters.rbimpl_id, align 8, !tbaa !36
  %.not.i = icmp eq i64 %8, 0
  br i1 %.not.i, label %.lr.ph.i, label %rbimpl_intern_const.exit, !llvm.loop !92

rbimpl_intern_const.exit:                         ; preds = %.lr.ph.i, %1
  %.lcssa.i = phi i64 [ %.pr.i, %1 ], [ %8, %.lr.ph.i ]
  %9 = tail call i64 @rb_id2sym(i64 noundef %.lcssa.i) #21
  %10 = tail call i64 (i64, ...) @rb_ary_new_from_args(i64 noundef 1, i64 noundef %9) #21
  tail call void @rb_obj_freeze_inline(i64 noundef %10) #21
  %.not24 = icmp eq i32 %7, 0
  br i1 %.not24, label %._crit_edge, label %.lr.ph

.lr.ph:                                           ; preds = %rbimpl_intern_const.exit, %.lr.ph
  %.025 = phi i32 [ %12, %.lr.ph ], [ %7, %rbimpl_intern_const.exit ]
  %11 = tail call i64 @rb_ary_push(i64 noundef %5, i64 noundef %10) #21
  %12 = add i32 %.025, -1
  %.not = icmp eq i32 %12, 0
  br i1 %.not, label %._crit_edge, label %.lr.ph, !llvm.loop !94

._crit_edge:                                      ; preds = %.lr.ph, %rbimpl_intern_const.exit
  br i1 %2, label %13, label %18

13:                                               ; preds = %._crit_edge
  %.pr.i17 = load i64, ptr @rb_unnamed_parameters.rbimpl_id.5, align 8, !tbaa !36
  %.not4.i18 = icmp eq i64 %.pr.i17, 0
  br i1 %.not4.i18, label %.lr.ph.i20, label %rbimpl_intern_const.exit22

.lr.ph.i20:                                       ; preds = %13, %.lr.ph.i20
  %14 = tail call i64 @rb_intern2(ptr noundef nonnull @.str.6, i64 noundef 4) #21
  store i64 %14, ptr @rb_unnamed_parameters.rbimpl_id.5, align 8, !tbaa !36
  %.not.i21 = icmp eq i64 %14, 0
  br i1 %.not.i21, label %.lr.ph.i20, label %rbimpl_intern_const.exit22, !llvm.loop !92

rbimpl_intern_const.exit22:                       ; preds = %.lr.ph.i20, %13
  %.lcssa.i19 = phi i64 [ %.pr.i17, %13 ], [ %14, %.lr.ph.i20 ]
  %15 = zext nneg i32 %6 to i64
  %16 = tail call i64 @rb_id2sym(i64 noundef %.lcssa.i19) #21
  %17 = tail call i64 (i64, ...) @rb_ary_new_from_args(i64 noundef 1, i64 noundef %16) #21
  tail call void @rb_ary_store(i64 noundef %5, i64 noundef %15, i64 noundef %17) #21
  br label %18

18:                                               ; preds = %rbimpl_intern_const.exit22, %._crit_edge
  ret i64 %5
}